; Function Attrs: nounwind uwtable
define ptr @l_Lake_RBArray_foldrM___rarg(ptr noundef %0, ptr noundef %1, ptr noundef %2, ptr noundef %3) #0 {
  %5 = getelementptr inbounds nuw i8, ptr %3, i64 16
  %6 = load ptr, ptr %5, align 8, !tbaa !4
  %7 = ptrtoint ptr %6 to i64
  %8 = and i64 %7, 1
  %.not = icmp eq i64 %8, 0
  br i1 %.not, label %9, label %lean_inc.exit35

9:                                                ; preds = %4
  %.val.i = load i32, ptr %6, align 4, !tbaa !8
  %10 = icmp sgt i32 %.val.i, 0
  br i1 %10, label %11, label %13, !prof !13

11:                                               ; preds = %9
  %12 = add nuw i32 %.val.i, 1
  store i32 %12, ptr %6, align 4, !tbaa !8
  br label %lean_inc.exit35

13:                                               ; preds = %9
  %.not.i48 = icmp eq i32 %.val.i, 0
  br i1 %.not.i48, label %lean_inc.exit35, label %14

14:                                               ; preds = %13
  tail call void @lean_inc_ref_cold(ptr noundef nonnull %6) #4
  br label %lean_inc.exit35

lean_inc.exit35:                                  ; preds = %14, %13, %11, %4
  %15 = ptrtoint ptr %3 to i64
  %16 = and i64 %15, 1
  %.not56 = icmp eq i64 %16, 0
  br i1 %.not56, label %17, label %lean_nat_lt.exit

17:                                               ; preds = %lean_inc.exit35
  %18 = load i32, ptr %3, align 4, !tbaa !8
  %19 = icmp sgt i32 %18, 1
  br i1 %19, label %20, label %22, !prof !13

20:                                               ; preds = %17
  %21 = add nsw i32 %18, -1
  store i32 %21, ptr %3, align 4, !tbaa !8
  br label %lean_nat_lt.exit

22:                                               ; preds = %17
  %.not.i = icmp eq i32 %18, 0
  br i1 %.not.i, label %lean_nat_lt.exit, label %23

23:                                               ; preds = %22
  tail call void @lean_dec_ref_cold(ptr noundef nonnull %3) #4
  br label %lean_nat_lt.exit

lean_nat_lt.exit:                                 ; preds = %lean_inc.exit35, %20, %22, %23
  %24 = getelementptr i8, ptr %6, i64 8
  %.val = load i64, ptr %24, align 8, !tbaa !14
  %.mask = and i64 %.val, 9223372036854775807
  %.not57 = icmp eq i64 %.mask, 0
  br i1 %.not57, label %lean_dec.exit32, label %lean_dec.exit

lean_dec.exit32:                                  ; preds = %lean_nat_lt.exit
  br i1 %.not, label %25, label %lean_dec.exit31

25:                                               ; preds = %lean_dec.exit32
  %26 = load i32, ptr %6, align 4, !tbaa !8
  %27 = icmp sgt i32 %26, 1
  br i1 %27, label %28, label %30, !prof !13

28:                                               ; preds = %25
  %29 = add nsw i32 %26, -1
  store i32 %29, ptr %6, align 4, !tbaa !8
  br label %lean_dec.exit31

30:                                               ; preds = %25
  %.not.i38 = icmp eq i32 %26, 0
  br i1 %.not.i38, label %lean_dec.exit31, label %31

31:                                               ; preds = %30
  tail call void @lean_dec_ref_cold(ptr noundef nonnull %6) #4
  br label %lean_dec.exit31

lean_dec.exit31:                                  ; preds = %31, %30, %28, %lean_dec.exit32
  %32 = ptrtoint ptr %1 to i64
  %33 = and i64 %32, 1
  %.not58 = icmp eq i64 %33, 0
  br i1 %.not58, label %34, label %lean_dec.exit30

34:                                               ; preds = %lean_dec.exit31
  %35 = load i32, ptr %1, align 4, !tbaa !8
  %36 = icmp sgt i32 %35, 1
  br i1 %36, label %37, label %39, !prof !13

37:                                               ; preds = %34
  %38 = add nsw i32 %35, -1
  store i32 %38, ptr %1, align 4, !tbaa !8
  br label %lean_dec.exit30

39:                                               ; preds = %34
  %.not.i40 = icmp eq i32 %35, 0
  br i1 %.not.i40, label %lean_dec.exit30, label %40

40:                                               ; preds = %39
  tail call void @lean_dec_ref_cold(ptr noundef nonnull %1) #4
  br label %lean_dec.exit30

lean_dec.exit30:                                  ; preds = %40, %39, %37, %lean_dec.exit31
  %41 = getelementptr inbounds nuw i8, ptr %0, i64 8
  %42 = load ptr, ptr %41, align 8, !tbaa !4
  %43 = ptrtoint ptr %42 to i64
  %44 = and i64 %43, 1
  %.not59 = icmp eq i64 %44, 0
  br i1 %.not59, label %45, label %lean_inc.exit34

45:                                               ; preds = %lean_dec.exit30
  %.val.i49 = load i32, ptr %42, align 4, !tbaa !8
  %46 = icmp sgt i32 %.val.i49, 0
  br i1 %46, label %47, label %49, !prof !13

47:                                               ; preds = %45
  %48 = add nuw i32 %.val.i49, 1
  store i32 %48, ptr %42, align 4, !tbaa !8
  br label %lean_inc.exit34

49:                                               ; preds = %45
  %.not.i50 = icmp eq i32 %.val.i49, 0
  br i1 %.not.i50, label %lean_inc.exit34, label %50

50:                                               ; preds = %49
  tail call void @lean_inc_ref_cold(ptr noundef nonnull %42) #4
  br label %lean_inc.exit34

lean_inc.exit34:                                  ; preds = %50, %49, %47, %lean_dec.exit30
  %51 = ptrtoint ptr %0 to i64
  %52 = and i64 %51, 1
  %.not60 = icmp eq i64 %52, 0
  br i1 %.not60, label %53, label %lean_dec.exit29

53:                                               ; preds = %lean_inc.exit34
  %54 = load i32, ptr %0, align 4, !tbaa !8
  %55 = icmp sgt i32 %54, 1
  br i1 %55, label %56, label %58, !prof !13

56:                                               ; preds = %53
  %57 = add nsw i32 %54, -1
  store i32 %57, ptr %0, align 4, !tbaa !8
  br label %lean_dec.exit29

58:                                               ; preds = %53
  %.not.i42 = icmp eq i32 %54, 0
  br i1 %.not.i42, label %lean_dec.exit29, label %59

59:                                               ; preds = %58
  tail call void @lean_dec_ref_cold(ptr noundef nonnull %0) #4
  br label %lean_dec.exit29

lean_dec.exit29:                                  ; preds = %59, %58, %56, %lean_inc.exit34
  %60 = getelementptr inbounds nuw i8, ptr %42, i64 16
  %61 = load ptr, ptr %60, align 8, !tbaa !4
  %62 = ptrtoint ptr %61 to i64
  %63 = and i64 %62, 1
  %.not61 = icmp eq i64 %63, 0
  br i1 %.not61, label %64, label %lean_inc.exit

64:                                               ; preds = %lean_dec.exit29
  %.val.i52 = load i32, ptr %61, align 4, !tbaa !8
  %65 = icmp sgt i32 %.val.i52, 0
  br i1 %65, label %66, label %68, !prof !13

66:                                               ; preds = %64
  %67 = add nuw i32 %.val.i52, 1
  store i32 %67, ptr %61, align 4, !tbaa !8
  br label %lean_inc.exit

68:                                               ; preds = %64
  %.not.i53 = icmp eq i32 %.val.i52, 0
  br i1 %.not.i53, label %lean_inc.exit, label %69

69:                                               ; preds = %68
  tail call void @lean_inc_ref_cold(ptr noundef nonnull %61) #4
  br label %lean_inc.exit

lean_inc.exit:                                    ; preds = %69, %68, %66, %lean_dec.exit29
  br i1 %.not59, label %70, label %lean_dec.exit28

70:                                               ; preds = %lean_inc.exit
  %71 = load i32, ptr %42, align 4, !tbaa !8
  %72 = icmp sgt i32 %71, 1
  br i1 %72, label %73, label %75, !prof !13

73:                                               ; preds = %70
  %74 = add nsw i32 %71, -1
  store i32 %74, ptr %42, align 4, !tbaa !8
  br label %lean_dec.exit28

75:                                               ; preds = %70
  %.not.i44 = icmp eq i32 %71, 0
  br i1 %.not.i44, label %lean_dec.exit28, label %76

76:                                               ; preds = %75
  tail call void @lean_dec_ref_cold(ptr noundef nonnull %42) #4
  br label %lean_dec.exit28

lean_dec.exit28:                                  ; preds = %76, %75, %73, %lean_inc.exit
  %77 = tail call ptr @lean_apply_2(ptr noundef %61, ptr noundef nonnull inttoptr (i64 1 to ptr), ptr noundef %2) #4
  br label %79

lean_dec.exit:                                    ; preds = %lean_nat_lt.exit
  %78 = tail call ptr @l_Array_foldrMUnsafe_fold___rarg(ptr noundef %0, ptr noundef %1, ptr noundef nonnull %6, i64 noundef %.mask, i64 noundef 0, ptr noundef %2) #4
  br label %79

79:                                               ; preds = %lean_dec.exit, %lean_dec.exit28
  %.0 = phi ptr [ %77, %lean_dec.exit28 ], [ %78, %lean_dec.exit ]
  ret ptr %.0
}